Certificate:
    Data:
        Version: 3 (0x2)
        Serial Number:
            ff:74:1b:c7:1c:1c:fd:54
        Signature Algorithm: sha1WithRSAEncryption
        Issuer: C=ZA, ST=Western Cape, O=IO Digital (Pty) Ltd., OU=Consent Ltd., CN=Test Certificate/emailAddress=werner@io.co.za
        Validity
            Not Before: Feb  2 08:19:01 2017 GMT
            Not After : Feb  2 08:19:01 2020 GMT
        Subject: C=ZA, ST=Western Cape, O=IO Digital (Pty) Ltd., OU=Consent Ltd., CN=Test Certificate/emailAddress=werner@io.co.za
        Subject Public Key Info:
            Public Key Algorithm: rsaEncryption
            RSA Public Key: (1024 bit)
                Modulus (1024 bit):
                    00:b9:c7:a1:f5:41:39:2e:c6:0c:49:19:1f:f5:1b:
                    43:12:0b:83:a7:70:a0:ba:45:92:51:0c:25:fb:41:
                    75:e5:6e:d8:1e:1a:a6:e0:42:43:fb:d3:9f:f2:c9:
                    7b:d5:3f:8b:1d:e9:7e:85:96:8b:13:7e:d9:7e:48:
                    15:aa:9d:15:7c:f4:5f:72:a8:bc:89:de:e8:1b:be:
                    b3:80:25:ca:6c:d0:33:2a:65:04:cf:d0:e0:fe:74:
                    29:e4:59:c1:1c:98:c4:77:9d:50:e0:c3:b2:36:94:
                    73:f7:d2:da:80:92:46:ca:d7:93:b1:2f:29:a6:06:
                    b3:94:0f:43:46:24:09:e3:f1
                Exponent: 65537 (0x10001)
        X509v3 extensions:
            X509v3 Subject Key Identifier: 
                21:FD:6C:EE:B9:7F:D8:38:F2:06:F6:19:71:68:EA:14:94:E5:CE:44
            X509v3 Authority Key Identifier: 
                keyid:21:FD:6C:EE:B9:7F:D8:38:F2:06:F6:19:71:68:EA:14:94:E5:CE:44
                DirName:/C=ZA/ST=Western Cape/O=IO Digital (Pty) Ltd./OU=Consent Ltd./CN=Test Certificate/emailAddress=werner@io.co.za
                serial:FF:74:1B:C7:1C:1C:FD:54

            X509v3 Basic Constraints: 
                CA:TRUE
    Signature Algorithm: sha1WithRSAEncryption
        4d:15:cc:61:99:7b:40:3d:9a:9e:1d:18:b4:42:40:c2:3b:d4:
        62:6c:21:fa:fc:92:6e:5f:ea:09:48:c0:73:cc:e3:df:d3:34:
        c6:40:ef:ef:d5:e6:84:cb:c6:38:55:f2:74:29:8b:de:ca:fb:
        d2:ee:84:5e:4b:d1:80:98:18:ca:a5:c1:b7:ba:3b:8b:46:28:
        e2:4e:57:d5:fc:6b:17:8a:5e:c3:4f:2d:75:49:32:54:27:5c:
        23:30:48:1e:b4:f4:21:81:2c:9a:4c:13:01:7c:95:a6:1c:ed:
        bd:1f:f1:6f:ac:ed:94:de:5c:51:97:23:33:40:b9:e0:8d:09:
        bd:0c
-----BEGIN CERTIFICATE-----
MIIDqzCCAxSgAwIBAgIJAP90G8ccHP1UMA0GCSqGSIb3DQEBBQUAMIGWMQswCQYD
VQQGEwJaQTEVMBMGA1UECBMMV2VzdGVybiBDYXBlMR4wHAYDVQQKExVJTyBEaWdp
dGFsIChQdHkpIEx0ZC4xFTATBgNVBAsTDENvbnNlbnQgTHRkLjEZMBcGA1UEAxMQ
VGVzdCBDZXJ0aWZpY2F0ZTEeMBwGCSqGSIb3DQEJARYPd2VybmVyQGlvLmNvLnph
MB4XDTE3MDIwMjA4MTkwMVoXDTIwMDIwMjA4MTkwMVowgZYxCzAJBgNVBAYTAlpB
MRUwEwYDVQQIEwxXZXN0ZXJuIENhcGUxHjAcBgNVBAoTFUlPIERpZ2l0YWwgKFB0
eSkgTHRkLjEVMBMGA1UECxMMQ29uc2VudCBMdGQuMRkwFwYDVQQDExBUZXN0IENl
cnRpZmljYXRlMR4wHAYJKoZIhvcNAQkBFg93ZXJuZXJAaW8uY28uemEwgZ8wDQYJ
KoZIhvcNAQEBBQADgY0AMIGJAoGBALnHofVBOS7GDEkZH/UbQxILg6dwoLpFklEM
JftBdeVu2B4apuBCQ/vTn/LJe9U/ix3pfoWWixN+2X5IFaqdFXz0X3KovIne6Bu+
s4AlymzQMyplBM/Q4P50KeRZwRyYxHedUODDsjaUc/fS2oCSRsrXk7EvKaYGs5QP
Q0YkCePxAgMBAAGjgf4wgfswHQYDVR0OBBYEFCH9bO65f9g48gb2GXFo6hSU5c5E
MIHLBgNVHSMEgcMwgcCAFCH9bO65f9g48gb2GXFo6hSU5c5EoYGcpIGZMIGWMQsw
CQYDVQQGEwJaQTEVMBMGA1UECBMMV2VzdGVybiBDYXBlMR4wHAYDVQQKExVJTyBE
aWdpdGFsIChQdHkpIEx0ZC4xFTATBgNVBAsTDENvbnNlbnQgTHRkLjEZMBcGA1UE
AxMQVGVzdCBDZXJ0aWZpY2F0ZTEeMBwGCSqGSIb3DQEJARYPd2VybmVyQGlvLmNv
LnphggkA/3Qbxxwc/VQwDAYDVR0TBAUwAwEB/zANBgkqhkiG9w0BAQUFAAOBgQBN
FcxhmXtAPZqeHRi0QkDCO9RibCH6/JJuX+oJSMBzzOPf0zTGQO/v1eaEy8Y4VfJ0
KYveyvvS7oReS9GAmBjKpcG3ujuLRijiTlfV/GsXil7DTy11STJUJ1wjMEgetPQh
gSyaTBMBfJWmHO29H/FvrO2U3lxRlyMzQLngjQm9DA==
-----END CERTIFICATE-----
